; Function Attrs: nounwind uwtable
define i32 @nghttp2_session_consume(ptr noundef %0, i32 noundef %1, i64 noundef %2) local_unnamed_addr #1 {
  %4 = icmp eq i32 %1, 0
  br i1 %4, label %nghttp2_session_get_stream.exit.thread, label %5

5:                                                ; preds = %3
  %6 = getelementptr inbounds nuw i8, ptr %0, i64 2660
  %7 = load i32, ptr %6, align 4, !tbaa !74
  %8 = and i32 %7, 1
  %.not = icmp eq i32 %8, 0
  br i1 %.not, label %nghttp2_session_get_stream.exit.thread, label %9

9:                                                ; preds = %5
  %10 = getelementptr inbounds nuw i8, ptr %0, i64 2580
  %11 = getelementptr inbounds nuw i8, ptr %0, i64 2576
  %12 = getelementptr inbounds nuw i8, ptr %0, i64 2677
  %13 = load i8, ptr %12, align 1, !tbaa !121
  %14 = getelementptr inbounds nuw i8, ptr %0, i64 2588
  %15 = load i32, ptr %14, align 4, !tbaa !52
  %16 = tail call fastcc i32 @session_update_consumed_size(ptr noundef nonnull %0, ptr noundef nonnull %10, ptr noundef nonnull %11, i8 noundef zeroext %13, i32 noundef 0, i64 noundef %2, i32 noundef %15)
  %17 = icmp sgt i32 %16, -901
  br i1 %17, label %18, label %nghttp2_session_get_stream.exit.thread

18:                                               ; preds = %9
  %19 = tail call ptr @nghttp2_map_find(ptr noundef nonnull %0, i32 noundef %1) #16
  %20 = icmp eq ptr %19, null
  br i1 %20, label %nghttp2_session_get_stream.exit.thread, label %21

21:                                               ; preds = %18
  %22 = getelementptr inbounds nuw i8, ptr %19, i64 116
  %23 = load i8, ptr %22, align 4, !tbaa !38
  %24 = and i8 %23, 2
  %.not.i = icmp eq i8 %24, 0
  br i1 %.not.i, label %25, label %nghttp2_session_get_stream.exit.thread

25:                                               ; preds = %21
  %26 = load i32, ptr %19, align 8, !tbaa !42
  %27 = icmp eq i32 %26, 5
  br i1 %27, label %nghttp2_session_get_stream.exit.thread, label %nghttp2_session_get_stream.exit

nghttp2_session_get_stream.exit:                  ; preds = %25
  %28 = getelementptr inbounds nuw i8, ptr %19, i64 92
  %29 = getelementptr inbounds nuw i8, ptr %19, i64 88
  %30 = getelementptr inbounds nuw i8, ptr %19, i64 119
  %31 = load i8, ptr %30, align 1, !tbaa !120
  %32 = getelementptr inbounds nuw i8, ptr %19, i64 80
  %33 = load i32, ptr %32, align 8, !tbaa !140
  %34 = getelementptr inbounds nuw i8, ptr %19, i64 100
  %35 = load i32, ptr %34, align 4, !tbaa !169
  %36 = tail call fastcc i32 @session_update_consumed_size(ptr noundef nonnull %0, ptr noundef nonnull %28, ptr noundef nonnull %29, i8 noundef zeroext %31, i32 noundef %33, i64 noundef %2, i32 noundef %35)
  %37 = icmp sgt i32 %36, -901
  %. = select i1 %37, i32 0, i32 %36
  br label %nghttp2_session_get_stream.exit.thread

nghttp2_session_get_stream.exit.thread:           ; preds = %25, %18, %21, %nghttp2_session_get_stream.exit, %9, %5, %3
  %.0 = phi i32 [ -501, %3 ], [ -519, %5 ], [ %16, %9 ], [ %., %nghttp2_session_get_stream.exit ], [ 0, %21 ], [ 0, %18 ], [ 0, %25 ]
  ret i32 %.0
}